; ModuleID = '9/36.c'
source_filename = "9/36.c"
target datalayout = "e-m:e-p270:32:32-p271:32:32-p272:64:64-i64:64-f80:128-n8:16:32:64-S128"
target triple = "x86_64-pc-linux-gnu"

%struct.MAN = type { [11 x i8], i32 }

@.str = private unnamed_addr constant [3 x i8] c"%d\00", align 1
@.str.1 = private unnamed_addr constant [6 x i8] c"%s %d\00", align 1
@.str.2 = private unnamed_addr constant [4 x i8] c"%s\0A\00", align 1

; Function Attrs: noinline nounwind uwtable
define dso_local void @sort(%struct.MAN* %0, i32 %1) #0 {
  %3 = alloca %struct.MAN*, align 8
  %4 = alloca i32, align 4
  %5 = alloca i32, align 4
  %6 = alloca i32, align 4
  %7 = alloca %struct.MAN, align 4
  store %struct.MAN* %0, %struct.MAN** %3, align 8
  store i32 %1, i32* %4, align 4
  store i32 0, i32* %5, align 4
  br label %8

8:                                                ; preds = %72, %2
  %9 = load i32, i32* %5, align 4
  %10 = load i32, i32* %4, align 4
  %11 = icmp slt i32 %9, %10
  br i1 %11, label %12, label %75

12:                                               ; preds = %8
  %13 = load i32, i32* %4, align 4
  %14 = sub nsw i32 %13, 1
  store i32 %14, i32* %6, align 4
  br label %15

15:                                               ; preds = %68, %12
  %16 = load i32, i32* %6, align 4
  %17 = load i32, i32* %5, align 4
  %18 = icmp sgt i32 %16, %17
  br i1 %18, label %19, label %71

19:                                               ; preds = %15
  %20 = load %struct.MAN*, %struct.MAN** %3, align 8
  %21 = load i32, i32* %6, align 4
  %22 = sext i32 %21 to i64
  %23 = getelementptr inbounds %struct.MAN, %struct.MAN* %20, i64 %22
  %24 = getelementptr inbounds %struct.MAN, %struct.MAN* %23, i32 0, i32 1
  %25 = load i32, i32* %24, align 4
  %26 = icmp sge i32 %25, 60
  br i1 %26, label %27, label %67

27:                                               ; preds = %19
  %28 = load %struct.MAN*, %struct.MAN** %3, align 8
  %29 = load i32, i32* %6, align 4
  %30 = sext i32 %29 to i64
  %31 = getelementptr inbounds %struct.MAN, %struct.MAN* %28, i64 %30
  %32 = getelementptr inbounds %struct.MAN, %struct.MAN* %31, i32 0, i32 1
  %33 = load i32, i32* %32, align 4
  %34 = load %struct.MAN*, %struct.MAN** %3, align 8
  %35 = load i32, i32* %6, align 4
  %36 = sub nsw i32 %35, 1
  %37 = sext i32 %36 to i64
  %38 = getelementptr inbounds %struct.MAN, %struct.MAN* %34, i64 %37
  %39 = getelementptr inbounds %struct.MAN, %struct.MAN* %38, i32 0, i32 1
  %40 = load i32, i32* %39, align 4
  %41 = icmp sgt i32 %33, %40
  br i1 %41, label %42, label %67

42:                                               ; preds = %27
  %43 = load %struct.MAN*, %struct.MAN** %3, align 8
  %44 = load i32, i32* %6, align 4
  %45 = sext i32 %44 to i64
  %46 = getelementptr inbounds %struct.MAN, %struct.MAN* %43, i64 %45
  %47 = bitcast %struct.MAN* %7 to i8*
  %48 = bitcast %struct.MAN* %46 to i8*
  call void @llvm.memcpy.p0i8.p0i8.i64(i8* align 4 %47, i8* align 4 %48, i64 16, i1 false)
  %49 = load %struct.MAN*, %struct.MAN** %3, align 8
  %50 = load i32, i32* %6, align 4
  %51 = sext i32 %50 to i64
  %52 = getelementptr inbounds %struct.MAN, %struct.MAN* %49, i64 %51
  %53 = load %struct.MAN*, %struct.MAN** %3, align 8
  %54 = load i32, i32* %6, align 4
  %55 = sub nsw i32 %54, 1
  %56 = sext i32 %55 to i64
  %57 = getelementptr inbounds %struct.MAN, %struct.MAN* %53, i64 %56
  %58 = bitcast %struct.MAN* %52 to i8*
  %59 = bitcast %struct.MAN* %57 to i8*
  call void @llvm.memcpy.p0i8.p0i8.i64(i8* align 4 %58, i8* align 4 %59, i64 16, i1 false)
  %60 = load %struct.MAN*, %struct.MAN** %3, align 8
  %61 = load i32, i32* %6, align 4
  %62 = sub nsw i32 %61, 1
  %63 = sext i32 %62 to i64
  %64 = getelementptr inbounds %struct.MAN, %struct.MAN* %60, i64 %63
  %65 = bitcast %struct.MAN* %64 to i8*
  %66 = bitcast %struct.MAN* %7 to i8*
  call void @llvm.memcpy.p0i8.p0i8.i64(i8* align 4 %65, i8* align 4 %66, i64 16, i1 false)
  br label %67

67:                                               ; preds = %42, %27, %19
  br label %68

68:                                               ; preds = %67
  %69 = load i32, i32* %6, align 4
  %70 = add nsw i32 %69, -1
  store i32 %70, i32* %6, align 4
  br label %15

71:                                               ; preds = %15
  br label %72

72:                                               ; preds = %71
  %73 = load i32, i32* %5, align 4
  %74 = add nsw i32 %73, 1
  store i32 %74, i32* %5, align 4
  br label %8

75:                                               ; preds = %8
  ret void
}

; Function Attrs: argmemonly nounwind willreturn
declare void @llvm.memcpy.p0i8.p0i8.i64(i8* noalias nocapture writeonly, i8* noalias nocapture readonly, i64, i1 immarg) #1

; Function Attrs: noinline nounwind uwtable
define dso_local i32 @main() #0 {
  %1 = alloca i32, align 4
  %2 = alloca i32, align 4
  %3 = alloca i32, align 4
  %4 = alloca %struct.MAN*, align 8
  %5 = alloca double, align 8
  %6 = alloca double, align 8
  store i32 0, i32* %1, align 4
  store %struct.MAN* null, %struct.MAN** %4, align 8
  store double 0.000000e+00, double* %6, align 8
  %7 = call i32 (i8*, ...) @__isoc99_scanf(i8* getelementptr inbounds ([3 x i8], [3 x i8]* @.str, i64 0, i64 0), i32* %3)
  %8 = load i32, i32* %3, align 4
  %9 = sext i32 %8 to i64
  %10 = mul i64 %9, 16
  %11 = call noalias i8* @malloc(i64 %10) #4
  %12 = bitcast i8* %11 to %struct.MAN*
  store %struct.MAN* %12, %struct.MAN** %4, align 8
  store i32 0, i32* %2, align 4
  br label %13

13:                                               ; preds = %30, %0
  %14 = load i32, i32* %2, align 4
  %15 = load i32, i32* %3, align 4
  %16 = icmp slt i32 %14, %15
  br i1 %16, label %17, label %33

17:                                               ; preds = %13
  %18 = load %struct.MAN*, %struct.MAN** %4, align 8
  %19 = load i32, i32* %2, align 4
  %20 = sext i32 %19 to i64
  %21 = getelementptr inbounds %struct.MAN, %struct.MAN* %18, i64 %20
  %22 = getelementptr inbounds %struct.MAN, %struct.MAN* %21, i32 0, i32 0
  %23 = getelementptr inbounds [11 x i8], [11 x i8]* %22, i64 0, i64 0
  %24 = load %struct.MAN*, %struct.MAN** %4, align 8
  %25 = load i32, i32* %2, align 4
  %26 = sext i32 %25 to i64
  %27 = getelementptr inbounds %struct.MAN, %struct.MAN* %24, i64 %26
  %28 = getelementptr inbounds %struct.MAN, %struct.MAN* %27, i32 0, i32 1
  %29 = call i32 (i8*, ...) @__isoc99_scanf(i8* getelementptr inbounds ([6 x i8], [6 x i8]* @.str.1, i64 0, i64 0), i8* %23, i32* %28)
  br label %30

30:                                               ; preds = %17
  %31 = load i32, i32* %2, align 4
  %32 = add nsw i32 %31, 1
  store i32 %32, i32* %2, align 4
  br label %13

33:                                               ; preds = %13
  %34 = load %struct.MAN*, %struct.MAN** %4, align 8
  %35 = load i32, i32* %3, align 4
  call void @sort(%struct.MAN* %34, i32 %35)
  store i32 0, i32* %2, align 4
  br label %36

36:                                               ; preds = %48, %33
  %37 = load i32, i32* %2, align 4
  %38 = load i32, i32* %3, align 4
  %39 = icmp slt i32 %37, %38
  br i1 %39, label %40, label %51

40:                                               ; preds = %36
  %41 = load %struct.MAN*, %struct.MAN** %4, align 8
  %42 = load i32, i32* %2, align 4
  %43 = sext i32 %42 to i64
  %44 = getelementptr inbounds %struct.MAN, %struct.MAN* %41, i64 %43
  %45 = getelementptr inbounds %struct.MAN, %struct.MAN* %44, i32 0, i32 0
  %46 = getelementptr inbounds [11 x i8], [11 x i8]* %45, i64 0, i64 0
  %47 = call i32 (i8*, ...) @printf(i8* getelementptr inbounds ([4 x i8], [4 x i8]* @.str.2, i64 0, i64 0), i8* %46)
  br label %48

48:                                               ; preds = %40
  %49 = load i32, i32* %2, align 4
  %50 = add nsw i32 %49, 1
  store i32 %50, i32* %2, align 4
  br label %36

51:                                               ; preds = %36
  %52 = load %struct.MAN*, %struct.MAN** %4, align 8
  %53 = bitcast %struct.MAN* %52 to i8*
  call void @free(i8* %53) #4
  ret i32 0
}

declare dso_local i32 @__isoc99_scanf(i8*, ...) #2

; Function Attrs: nounwind
declare dso_local noalias i8* @malloc(i64) #3

declare dso_local i32 @printf(i8*, ...) #2

; Function Attrs: nounwind
declare dso_local void @free(i8*) #3


!llvm.module.flags = !{!0}
!llvm.ident = !{!1}

!0 = !{i32 1, !"wchar_size", i32 4}
!1 = !{!"clang version 10.0.0-4ubuntu1 "}
